

Microchip MPLAB XC8 Assembler V2.30 build 20200825195618 
                                                                                               Thu Dec 10 10:32:21 2020

Microchip MPLAB XC8 C Compiler v2.30 (Free license) build 20200825195618 Og1 
     1                           	processor	18F4520
     2                           	fnconf	rparam,??,?,0
     3                           	pagewidth 120
     4                           	opt	flic
     5                           	psect	cinit,global,reloc=2,class=CODE,delta=1
     6                           	psect	bssCOMRAM,global,class=COMRAM,space=1,delta=1,lowdata,noexec
     7                           	psect	cstackCOMRAM,global,class=COMRAM,space=1,delta=1,lowdata,noexec
     8                           	psect	text0,global,reloc=2,class=CODE,delta=1
     9                           	psect	intcode,global,reloc=2,class=CODE,delta=1
    10                           	psect	intcode_body,global,reloc=2,class=CODE,delta=1
    11                           	psect	intsave_regs,global,class=BIGRAM,space=1,delta=1,noexec
    12                           	psect	rparam,global,class=COMRAM,space=1,delta=1,noexec
    13                           	psect	temp,global,ovrld,common,class=COMRAM,space=1,delta=1
    14                           	psect	idloc,global,abs,ovrld,class=IDLOC,space=5,delta=1,noexec
    15                           	psect	config,global,abs,ovrld,class=CONFIG,space=4,delta=1,noexec
    16  0000                     
    17                           ; Version 2.30
    18                           ; Generated 26/08/2020 GMT
    19                           ; 
    20                           ; Copyright © 2020, Microchip Technology Inc. and its subsidiaries ("Microchip")
    21                           ; All rights reserved.
    22                           ; 
    23                           ; This software is developed by Microchip Technology Inc. and its subsidiaries ("Microch
      +                          ip").
    24                           ; 
    25                           ; Redistribution and use in source and binary forms, with or without modification, are
    26                           ; permitted provided that the following conditions are met:
    27                           ; 
    28                           ;     1. Redistributions of source code must retain the above copyright notice, this lis
      +                          t of
    29                           ;        conditions and the following disclaimer.
    30                           ; 
    31                           ;     2. Redistributions in binary form must reproduce the above copyright notice, this 
      +                          list
    32                           ;        of conditions and the following disclaimer in the documentation and/or other
    33                           ;        materials provided with the distribution. Publication is not required when
    34                           ;        this file is used in an embedded application.
    35                           ; 
    36                           ;     3. Microchip's name may not be used to endorse or promote products derived from th
      +                          is
    37                           ;        software without specific prior written permission.
    38                           ; 
    39                           ; THIS SOFTWARE IS PROVIDED BY MICROCHIP "AS IS" AND ANY EXPRESS OR IMPLIED WARRANTIES,
    40                           ; INCLUDING, BUT NOT LIMITED TO, THE IMPLIED WARRANTIES OF MERCHANTABILITY AND FITNESS F
      +                          OR
    41                           ; PURPOSE ARE DISCLAIMED.  IN NO EVENT SHALL MICROCHIP BE LIABLE FOR ANY DIRECT, INDIREC
      +                          T,
    42                           ; INCIDENTAL, SPECIAL, EXEMPLARY, OR CONSEQUENTIAL DAMAGES (INCLUDING BUT NOT LIMITED TO
    43                           ; PROCUREMENT OF SUBSTITUTE GOODS OR SERVICES; LOSS OF USE, DATA OR PROFITS; OR BUSINESS
    44                           ; INTERRUPTION) HOWSOEVER CAUSED AND ON ANY THEORY OF LIABILITY, WHETHER IN CONTRACT, ST
      +                          RICT
    45                           ; LIABILITY, OR TORT (INCLUDING NEGLIGENCE OR OTHERWISE) ARISING IN ANY WAY OUT OF THE U
      +                          SE OF
    46                           ; THIS SOFTWARE, EVEN IF ADVISED OF THE POSSIBILITY OF SUCH DAMAGE.
    47                           ; 
    48                           ; 
    49                           ; Code-generator required, PIC18F4520 Definitions
    50                           ; 
    51                           ; SFR Addresses
    52  0000                     _LATDbits	set	3980
    53  0000                     _TRISDbits	set	3989
    54  0000                     _LATD	set	3980
    55  0000                     _IPR1bits	set	3999
    56  0000                     _PIE1bits	set	3997
    57  0000                     _RCONbits	set	4048
    58  0000                     _ADCON2bits	set	4032
    59  0000                     _ADCON1bits	set	4033
    60  0000                     _OSCCONbits	set	4051
    61  0000                     _ADCON0bits	set	4034
    62  0000                     _PIR1bits	set	3998
    63  0000                     _ADRESL	set	4035
    64  0000                     _ADRESH	set	4036
    65  0000                     _INTCONbits	set	4082
    66                           
    67                           ; #config settings
    68                           
    69                           	psect	cinit
    70  0003C0                     __pcinit:
    71                           	callstack 0
    72  0003C0                     start_initialization:
    73                           	callstack 0
    74  0003C0                     __initialization:
    75                           	callstack 0
    76                           
    77                           ; Clear objects allocated to COMRAM (2 bytes)
    78  0003C0  6A05               	clrf	(__pbssCOMRAM+1)& (0+255),c
    79  0003C2  6A04               	clrf	__pbssCOMRAM& (0+255),c
    80  0003C4                     end_of_initialization:
    81                           	callstack 0
    82  0003C4                     __end_of__initialization:
    83                           	callstack 0
    84  0003C4  9006               	bcf	int$flags,0,c	;clear compiler interrupt flag (level 1)
    85  0003C6  9206               	bcf	int$flags,1,c	;clear compiler interrupt flag (level 2)
    86  0003C8  0100               	movlb	0
    87  0003CA  EFB8  F001         	goto	_main	;jump to C main() function
    88                           
    89                           	psect	bssCOMRAM
    90  000004                     __pbssCOMRAM:
    91                           	callstack 0
    92  000004                     _x:
    93                           	callstack 0
    94  000004                     	ds	2
    95                           
    96                           	psect	cstackCOMRAM
    97  000001                     __pcstackCOMRAM:
    98                           	callstack 0
    99  000001                     ??_myIsr:
   100  000001                     
   101                           ; 1 bytes @ 0x0
   102  000001                     	ds	1
   103  000002                     myIsr@temp1:
   104                           	callstack 0
   105                           
   106                           ; 2 bytes @ 0x1
   107  000002                     	ds	2
   108  000004                     
   109                           ; 1 bytes @ 0x3
   110 ;;
   111 ;;Main: autosize = 0, tempsize = 0, incstack = 0, save=0
   112 ;;
   113 ;; *************** function _main *****************
   114 ;; Defined at:
   115 ;;		line 89 in file "lab10.c"
   116 ;; Parameters:    Size  Location     Type
   117 ;;		None
   118 ;; Auto vars:     Size  Location     Type
   119 ;;		None
   120 ;; Return value:  Size  Location     Type
   121 ;;                  1    wreg      void 
   122 ;; Registers used:
   123 ;;		wreg, status,2
   124 ;; Tracked objects:
   125 ;;		On entry : 0/0
   126 ;;		On exit  : 0/0
   127 ;;		Unchanged: 0/0
   128 ;; Data sizes:     COMRAM   BANK0   BANK1   BANK2   BANK3   BANK4   BANK5
   129 ;;      Params:         0       0       0       0       0       0       0
   130 ;;      Locals:         0       0       0       0       0       0       0
   131 ;;      Temps:          0       0       0       0       0       0       0
   132 ;;      Totals:         0       0       0       0       0       0       0
   133 ;;Total ram usage:        0 bytes
   134 ;; Hardware stack levels required when called:    1
   135 ;; This function calls:
   136 ;;		Nothing
   137 ;; This function is called by:
   138 ;;		Startup code after reset
   139 ;; This function uses a non-reentrant model
   140 ;;
   141                           
   142                           	psect	text0
   143  000370                     __ptext0:
   144                           	callstack 0
   145  000370                     _main:
   146                           	callstack 30
   147  000370  50D3               	movf	211,w,c	;volatile
   148  000372  0B8F               	andlw	-113
   149  000374  0960               	iorlw	96
   150  000376  6ED3               	movwf	211,c	;volatile
   151  000378  9095               	bcf	149,0,c	;volatile
   152  00037A  9295               	bcf	149,1,c	;volatile
   153  00037C  9495               	bcf	149,2,c	;volatile
   154  00037E  9695               	bcf	149,3,c	;volatile
   155  000380  908C               	bcf	140,0,c	;volatile
   156  000382  928C               	bcf	140,1,c	;volatile
   157  000384  948C               	bcf	140,2,c	;volatile
   158  000386  968C               	bcf	140,3,c	;volatile
   159  000388  9AC1               	bcf	193,5,c	;volatile
   160  00038A  98C1               	bcf	193,4,c	;volatile
   161  00038C  50C1               	movf	193,w,c	;volatile
   162  00038E  0BF0               	andlw	-16
   163  000390  090E               	iorlw	14
   164  000392  6EC1               	movwf	193,c	;volatile
   165  000394  0EC3               	movlw	-61
   166  000396  16C2               	andwf	194,f,c	;volatile
   167  000398  50C0               	movf	192,w,c	;volatile
   168  00039A  0BF8               	andlw	-8
   169  00039C  0904               	iorlw	4
   170  00039E  6EC0               	movwf	192,c	;volatile
   171  0003A0  50C0               	movf	192,w,c	;volatile
   172  0003A2  0BC7               	andlw	-57
   173  0003A4  0910               	iorlw	16
   174  0003A6  6EC0               	movwf	192,c	;volatile
   175  0003A8  80C2               	bsf	194,0,c	;volatile
   176  0003AA  8EC0               	bsf	192,7,c	;volatile
   177  0003AC  8ED0               	bsf	208,7,c	;volatile
   178  0003AE  8EF2               	bsf	242,7,c	;volatile
   179  0003B0  8C9D               	bsf	157,6,c	;volatile
   180  0003B2  9C9E               	bcf	158,6,c	;volatile
   181  0003B4  8C9F               	bsf	159,6,c	;volatile
   182  0003B6  82C2               	bsf	194,1,c	;volatile
   183  0003B8                     l73:
   184  0003B8  EFDC  F001         	goto	l73
   185  0003BC  EF07  F000         	goto	start
   186  0003C0                     __end_of_main:
   187                           	callstack 0
   188                           
   189 ;; *************** function _myIsr *****************
   190 ;; Defined at:
   191 ;;		line 22 in file "lab10.c"
   192 ;; Parameters:    Size  Location     Type
   193 ;;		None
   194 ;; Auto vars:     Size  Location     Type
   195 ;;  temp1           2    1[COMRAM] unsigned int 
   196 ;; Return value:  Size  Location     Type
   197 ;;                  1    wreg      void 
   198 ;; Registers used:
   199 ;;		wreg, status,2, status,0
   200 ;; Tracked objects:
   201 ;;		On entry : 0/0
   202 ;;		On exit  : 0/0
   203 ;;		Unchanged: 0/0
   204 ;; Data sizes:     COMRAM   BANK0   BANK1   BANK2   BANK3   BANK4   BANK5
   205 ;;      Params:         0       0       0       0       0       0       0
   206 ;;      Locals:         2       0       0       0       0       0       0
   207 ;;      Temps:          1       0       0       0       0       0       0
   208 ;;      Totals:         3       0       0       0       0       0       0
   209 ;;Total ram usage:        3 bytes
   210 ;; Hardware stack levels used:    1
   211 ;; This function calls:
   212 ;;		Nothing
   213 ;; This function is called by:
   214 ;;		Interrupt level 2
   215 ;; This function uses a non-reentrant model
   216 ;;
   217                           
   218                           	psect	intcode
   219  000008                     __pintcode:
   220                           	callstack 0
   221  000008                     _myIsr:
   222                           	callstack 30
   223                           
   224                           ;incstack = 0
   225  000008  8206               	bsf	int$flags,1,c	;set compiler interrupt flag (level 2)
   226  00000A  ED09  F000         	call	int_func,f	;refresh shadow registers
   227                           
   228                           	psect	intcode_body
   229  000012                     __pintcode_body:
   230                           	callstack 30
   231  000012                     int_func:
   232                           	callstack 30
   233  000012  0006               	pop		; remove dummy address from shadow register refresh
   234  000014                     
   235                           ;lab10.c: 25:     };lab10.c: 25: 
   236  000014  9EF2               	bcf	242,7,c	;volatile
   237  000016                     
   238                           ;lab10.c: 26:     else if(340<=x&&x<408){;lab10.c: 26:     ADCON0bits.ADON=0b1;
   239  000016  0E00               	movlw	0
   240  000018  6E03               	movwf	(myIsr@temp1+1)^0,c
   241  00001A  6802               	setf	myIsr@temp1^0,c
   242                           
   243                           ;lab10.c: 27:         LATD=0x05;;lab10.c: 27: 
   244  00001C  0E00               	movlw	0
   245  00001E  6E05               	movwf	(_x+1)^0,c
   246  000020  0E03               	movlw	3
   247  000022  6E04               	movwf	_x^0,c
   248  000024                     
   249                           ;lab10.c: 28:     };lab10.c: 28:     ADCON2bits.ADFM=0b1;
   250  000024  50C4               	movf	196,w,c	;volatile
   251  000026  1404               	andwf	_x^0,w,c
   252  000028  6E01               	movwf	??_myIsr^0,c
   253  00002A  5001               	movf	??_myIsr^0,w,c
   254  00002C  6E04               	movwf	_x^0,c
   255  00002E  6A05               	clrf	(_x+1)^0,c
   256  000030                     
   257                           ;lab10.c: 29:     else if(408<=x&&x<476){;lab10.c: 29: 
   258  000030  5004               	movf	_x^0,w,c
   259  000032  6E05               	movwf	(_x+1)^0,c
   260  000034  6A04               	clrf	_x^0,c
   261                           
   262                           ;lab10.c: 30:         LATD=0x06;;lab10.c: 30:     RCONbits.IPEN=0b1;
   263  000036  50C3               	movf	195,w,c	;volatile
   264  000038  1402               	andwf	myIsr@temp1^0,w,c
   265  00003A  6E01               	movwf	??_myIsr^0,c
   266  00003C  5001               	movf	??_myIsr^0,w,c
   267  00003E  6E02               	movwf	myIsr@temp1^0,c
   268  000040  6A03               	clrf	(myIsr@temp1+1)^0,c
   269                           
   270                           ;lab10.c: 32:     else if(476<=x&&x<544){;lab10.c: 32: 
   271  000042  5002               	movf	myIsr@temp1^0,w,c
   272  000044  2604               	addwf	_x^0,f,c
   273  000046  5003               	movf	(myIsr@temp1+1)^0,w,c
   274  000048  2205               	addwfc	(_x+1)^0,f,c
   275  00004A  5005               	movf	(_x+1)^0,w,c
   276  00004C  E107               	bnz	i2u1_41
   277  00004E  0E44               	movlw	68
   278  000050  5C04               	subwf	_x^0,w,c
   279  000052  B0D8               	btfsc	status,0,c
   280  000054  EF2E  F000         	goto	i2u1_41
   281  000058  EF30  F000         	goto	i2u1_40
   282  00005C                     i2u1_41:
   283  00005C  EF34  F000         	goto	i2l762
   284  000060                     i2u1_40:
   285  000060                     
   286                           ;lab10.c: 33:         LATD=0x07;;lab10.c: 33:     PIE1bits.ADIE=0b1;
   287  000060  0E00               	movlw	0
   288  000062  6E8C               	movwf	140,c	;volatile
   289                           
   290                           ;lab10.c: 34:     };lab10.c: 34:     PIR1bits.ADIF=0b0;
   291  000064  EFAF  F001         	goto	i2l850
   292  000068                     i2l762:
   293  000068  5005               	movf	(_x+1)^0,w,c
   294  00006A  E109               	bnz	i2u2_40
   295  00006C  0E44               	movlw	68
   296  00006E  5C04               	subwf	_x^0,w,c
   297  000070  A0D8               	btfss	status,0,c
   298  000072  EF3D  F000         	goto	i2u2_41
   299  000076  EF3F  F000         	goto	i2u2_40
   300  00007A                     i2u2_41:
   301  00007A  EF4E  F000         	goto	i2l768
   302  00007E                     i2u2_40:
   303  00007E  5005               	movf	(_x+1)^0,w,c
   304  000080  E107               	bnz	i2u3_41
   305  000082  0E88               	movlw	136
   306  000084  5C04               	subwf	_x^0,w,c
   307  000086  B0D8               	btfsc	status,0,c
   308  000088  EF48  F000         	goto	i2u3_41
   309  00008C  EF4A  F000         	goto	i2u3_40
   310  000090                     i2u3_41:
   311  000090  EF4E  F000         	goto	i2l768
   312  000094                     i2u3_40:
   313  000094                     
   314                           ;lab10.c: 36:         LATD=0x08;;lab10.c: 36: 
   315  000094  0E01               	movlw	1
   316  000096  6E8C               	movwf	140,c	;volatile
   317                           
   318                           ;lab10.c: 37:     };lab10.c: 37:     ADCON0bits.GO_nDONE=0b1;
   319  000098  EFAF  F001         	goto	i2l850
   320  00009C                     i2l768:
   321  00009C  5005               	movf	(_x+1)^0,w,c
   322  00009E  E109               	bnz	i2u4_40
   323  0000A0  0E88               	movlw	136
   324  0000A2  5C04               	subwf	_x^0,w,c
   325  0000A4  A0D8               	btfss	status,0,c
   326  0000A6  EF57  F000         	goto	i2u4_41
   327  0000AA  EF59  F000         	goto	i2u4_40
   328  0000AE                     i2u4_41:
   329  0000AE  EF68  F000         	goto	i2l774
   330  0000B2                     i2u4_40:
   331  0000B2  5005               	movf	(_x+1)^0,w,c
   332  0000B4  E107               	bnz	i2u5_41
   333  0000B6  0ECC               	movlw	204
   334  0000B8  5C04               	subwf	_x^0,w,c
   335  0000BA  B0D8               	btfsc	status,0,c
   336  0000BC  EF62  F000         	goto	i2u5_41
   337  0000C0  EF64  F000         	goto	i2u5_40
   338  0000C4                     i2u5_41:
   339  0000C4  EF68  F000         	goto	i2l774
   340  0000C8                     i2u5_40:
   341  0000C8                     
   342                           ;lab10.c: 39:         LATD=0x09;;lab10.c: 39:     while(1);
   343  0000C8  0E02               	movlw	2
   344  0000CA  6E8C               	movwf	140,c	;volatile
   345                           
   346                           ;lab10.c: 40:     };lab10.c: 40: 
   347  0000CC  EFAF  F001         	goto	i2l850
   348  0000D0                     i2l774:
   349  0000D0  5005               	movf	(_x+1)^0,w,c
   350  0000D2  E109               	bnz	i2u6_40
   351  0000D4  0ECC               	movlw	204
   352  0000D6  5C04               	subwf	_x^0,w,c
   353  0000D8  A0D8               	btfss	status,0,c
   354  0000DA  EF71  F000         	goto	i2u6_41
   355  0000DE  EF73  F000         	goto	i2u6_40
   356  0000E2                     i2u6_41:
   357  0000E2  EF82  F000         	goto	i2l780
   358  0000E6                     i2u6_40:
   359  0000E6  0E10               	movlw	16
   360  0000E8  5C04               	subwf	_x^0,w,c
   361  0000EA  0E01               	movlw	1
   362  0000EC  5805               	subwfb	(_x+1)^0,w,c
   363  0000EE  B0D8               	btfsc	status,0,c
   364  0000F0  EF7C  F000         	goto	i2u7_41
   365  0000F4  EF7E  F000         	goto	i2u7_40
   366  0000F8                     i2u7_41:
   367  0000F8  EF82  F000         	goto	i2l780
   368  0000FC                     i2u7_40:
   369  0000FC                     
   370                           ;lab10.c: 42:          LATD=0x0A;;lab10.c: 42: }
   371  0000FC  0E03               	movlw	3
   372  0000FE  6E8C               	movwf	140,c	;volatile
   373                           
   374                           ;lab10.c: 43:     }
   375  000100  EFAF  F001         	goto	i2l850
   376  000104                     i2l780:
   377  000104  0E10               	movlw	16
   378  000106  5C04               	subwf	_x^0,w,c
   379  000108  0E01               	movlw	1
   380  00010A  5805               	subwfb	(_x+1)^0,w,c
   381  00010C  A0D8               	btfss	status,0,c
   382  00010E  EF8B  F000         	goto	i2u8_41
   383  000112  EF8D  F000         	goto	i2u8_40
   384  000116                     i2u8_41:
   385  000116  EF9C  F000         	goto	i2l786
   386  00011A                     i2u8_40:
   387  00011A  0E54               	movlw	84
   388  00011C  5C04               	subwf	_x^0,w,c
   389  00011E  0E01               	movlw	1
   390  000120  5805               	subwfb	(_x+1)^0,w,c
   391  000122  B0D8               	btfsc	status,0,c
   392  000124  EF96  F000         	goto	i2u9_41
   393  000128  EF98  F000         	goto	i2u9_40
   394  00012C                     i2u9_41:
   395  00012C  EF9C  F000         	goto	i2l786
   396  000130                     i2u9_40:
   397  000130                     
   398                           ;lab10.c: 45:          LATD=0x0B;
   399  000130  0E04               	movlw	4
   400  000132  6E8C               	movwf	140,c	;volatile
   401                           
   402                           ;lab10.c: 46:     }
   403  000134  EFAF  F001         	goto	i2l850
   404  000138                     i2l786:
   405  000138  0E54               	movlw	84
   406  00013A  5C04               	subwf	_x^0,w,c
   407  00013C  0E01               	movlw	1
   408  00013E  5805               	subwfb	(_x+1)^0,w,c
   409  000140  A0D8               	btfss	status,0,c
   410  000142  EFA5  F000         	goto	i2u10_41
   411  000146  EFA7  F000         	goto	i2u10_40
   412  00014A                     i2u10_41:
   413  00014A  EFB6  F000         	goto	i2l792
   414  00014E                     i2u10_40:
   415  00014E  0E98               	movlw	152
   416  000150  5C04               	subwf	_x^0,w,c
   417  000152  0E01               	movlw	1
   418  000154  5805               	subwfb	(_x+1)^0,w,c
   419  000156  B0D8               	btfsc	status,0,c
   420  000158  EFB0  F000         	goto	i2u11_41
   421  00015C  EFB2  F000         	goto	i2u11_40
   422  000160                     i2u11_41:
   423  000160  EFB6  F000         	goto	i2l792
   424  000164                     i2u11_40:
   425  000164                     
   426                           ;lab10.c: 48:          LATD=0x0C;
   427  000164  0E05               	movlw	5
   428  000166  6E8C               	movwf	140,c	;volatile
   429                           
   430                           ;lab10.c: 49:     }
   431  000168  EFAF  F001         	goto	i2l850
   432  00016C                     i2l792:
   433  00016C  0E98               	movlw	152
   434  00016E  5C04               	subwf	_x^0,w,c
   435  000170  0E01               	movlw	1
   436  000172  5805               	subwfb	(_x+1)^0,w,c
   437  000174  A0D8               	btfss	status,0,c
   438  000176  EFBF  F000         	goto	i2u12_41
   439  00017A  EFC1  F000         	goto	i2u12_40
   440  00017E                     i2u12_41:
   441  00017E  EFD0  F000         	goto	i2l798
   442  000182                     i2u12_40:
   443  000182  0EDC               	movlw	220
   444  000184  5C04               	subwf	_x^0,w,c
   445  000186  0E01               	movlw	1
   446  000188  5805               	subwfb	(_x+1)^0,w,c
   447  00018A  B0D8               	btfsc	status,0,c
   448  00018C  EFCA  F000         	goto	i2u13_41
   449  000190  EFCC  F000         	goto	i2u13_40
   450  000194                     i2u13_41:
   451  000194  EFD0  F000         	goto	i2l798
   452  000198                     i2u13_40:
   453  000198                     
   454                           ;lab10.c: 51:          LATD=0x0D;
   455  000198  0E06               	movlw	6
   456  00019A  6E8C               	movwf	140,c	;volatile
   457                           
   458                           ;lab10.c: 52:     }
   459  00019C  EFAF  F001         	goto	i2l850
   460  0001A0                     i2l798:
   461  0001A0  0EDC               	movlw	220
   462  0001A2  5C04               	subwf	_x^0,w,c
   463  0001A4  0E01               	movlw	1
   464  0001A6  5805               	subwfb	(_x+1)^0,w,c
   465  0001A8  A0D8               	btfss	status,0,c
   466  0001AA  EFD9  F000         	goto	i2u14_41
   467  0001AE  EFDB  F000         	goto	i2u14_40
   468  0001B2                     i2u14_41:
   469  0001B2  EFEA  F000         	goto	i2l804
   470  0001B6                     i2u14_40:
   471  0001B6  0E20               	movlw	32
   472  0001B8  5C04               	subwf	_x^0,w,c
   473  0001BA  0E02               	movlw	2
   474  0001BC  5805               	subwfb	(_x+1)^0,w,c
   475  0001BE  B0D8               	btfsc	status,0,c
   476  0001C0  EFE4  F000         	goto	i2u15_41
   477  0001C4  EFE6  F000         	goto	i2u15_40
   478  0001C8                     i2u15_41:
   479  0001C8  EFEA  F000         	goto	i2l804
   480  0001CC                     i2u15_40:
   481  0001CC                     
   482                           ;lab10.c: 54:          LATD=0x0E;
   483  0001CC  0E07               	movlw	7
   484  0001CE  6E8C               	movwf	140,c	;volatile
   485                           
   486                           ;lab10.c: 55:     }
   487  0001D0  EFAF  F001         	goto	i2l850
   488  0001D4                     i2l804:
   489  0001D4  0E20               	movlw	32
   490  0001D6  5C04               	subwf	_x^0,w,c
   491  0001D8  0E02               	movlw	2
   492  0001DA  5805               	subwfb	(_x+1)^0,w,c
   493  0001DC  A0D8               	btfss	status,0,c
   494  0001DE  EFF3  F000         	goto	i2u16_41
   495  0001E2  EFF5  F000         	goto	i2u16_40
   496  0001E6                     i2u16_41:
   497  0001E6  EF04  F001         	goto	i2l810
   498  0001EA                     i2u16_40:
   499  0001EA  0E64               	movlw	100
   500  0001EC  5C04               	subwf	_x^0,w,c
   501  0001EE  0E02               	movlw	2
   502  0001F0  5805               	subwfb	(_x+1)^0,w,c
   503  0001F2  B0D8               	btfsc	status,0,c
   504  0001F4  EFFE  F000         	goto	i2u17_41
   505  0001F8  EF00  F001         	goto	i2u17_40
   506  0001FC                     i2u17_41:
   507  0001FC  EF04  F001         	goto	i2l810
   508  000200                     i2u17_40:
   509  000200                     
   510                           ;lab10.c: 57:          LATD=0x0F;
   511  000200  0E08               	movlw	8
   512  000202  6E8C               	movwf	140,c	;volatile
   513                           
   514                           ;lab10.c: 58:     }
   515  000204  EFAF  F001         	goto	i2l850
   516  000208                     i2l810:
   517  000208  0E64               	movlw	100
   518  00020A  5C04               	subwf	_x^0,w,c
   519  00020C  0E02               	movlw	2
   520  00020E  5805               	subwfb	(_x+1)^0,w,c
   521  000210  A0D8               	btfss	status,0,c
   522  000212  EF0D  F001         	goto	i2u18_41
   523  000216  EF0F  F001         	goto	i2u18_40
   524  00021A                     i2u18_41:
   525  00021A  EF1E  F001         	goto	i2l816
   526  00021E                     i2u18_40:
   527  00021E  0EA8               	movlw	168
   528  000220  5C04               	subwf	_x^0,w,c
   529  000222  0E02               	movlw	2
   530  000224  5805               	subwfb	(_x+1)^0,w,c
   531  000226  B0D8               	btfsc	status,0,c
   532  000228  EF18  F001         	goto	i2u19_41
   533  00022C  EF1A  F001         	goto	i2u19_40
   534  000230                     i2u19_41:
   535  000230  EF1E  F001         	goto	i2l816
   536  000234                     i2u19_40:
   537  000234                     
   538                           ;lab10.c: 60:     PIR1bits.ADIF=0b0;
   539  000234  0E09               	movlw	9
   540  000236  6E8C               	movwf	140,c	;volatile
   541                           
   542                           ;lab10.c: 61:     ADCON0bits.GO_nDONE=0b1;
   543  000238  EFAF  F001         	goto	i2l850
   544  00023C                     i2l816:
   545  00023C  0EA8               	movlw	168
   546  00023E  5C04               	subwf	_x^0,w,c
   547  000240  0E02               	movlw	2
   548  000242  5805               	subwfb	(_x+1)^0,w,c
   549  000244  A0D8               	btfss	status,0,c
   550  000246  EF27  F001         	goto	i2u20_41
   551  00024A  EF29  F001         	goto	i2u20_40
   552  00024E                     i2u20_41:
   553  00024E  EF38  F001         	goto	i2l822
   554  000252                     i2u20_40:
   555  000252  0EE8               	movlw	232
   556  000254  5C04               	subwf	_x^0,w,c
   557  000256  0E02               	movlw	2
   558  000258  5805               	subwfb	(_x+1)^0,w,c
   559  00025A  B0D8               	btfsc	status,0,c
   560  00025C  EF32  F001         	goto	i2u21_41
   561  000260  EF34  F001         	goto	i2u21_40
   562  000264                     i2u21_41:
   563  000264  EF38  F001         	goto	i2l822
   564  000268                     i2u21_40:
   565  000268                     
   566                           ;lab10.c: 63: 
   567  000268  0E0A               	movlw	10
   568  00026A  6E8C               	movwf	140,c	;volatile
   569                           
   570                           ;lab10.c: 64: 
   571  00026C  EFAF  F001         	goto	i2l850
   572  000270                     i2l822:
   573  000270  0EE8               	movlw	232
   574  000272  5C04               	subwf	_x^0,w,c
   575  000274  0E02               	movlw	2
   576  000276  5805               	subwfb	(_x+1)^0,w,c
   577  000278  A0D8               	btfss	status,0,c
   578  00027A  EF41  F001         	goto	i2u22_41
   579  00027E  EF43  F001         	goto	i2u22_40
   580  000282                     i2u22_41:
   581  000282  EF52  F001         	goto	i2l828
   582  000286                     i2u22_40:
   583  000286  0E28               	movlw	40
   584  000288  5C04               	subwf	_x^0,w,c
   585  00028A  0E03               	movlw	3
   586  00028C  5805               	subwfb	(_x+1)^0,w,c
   587  00028E  B0D8               	btfsc	status,0,c
   588  000290  EF4C  F001         	goto	i2u23_41
   589  000294  EF4E  F001         	goto	i2u23_40
   590  000298                     i2u23_41:
   591  000298  EF52  F001         	goto	i2l828
   592  00029C                     i2u23_40:
   593  00029C                     
   594                           ;lab10.c: 66: 
   595  00029C  0E0B               	movlw	11
   596  00029E  6E8C               	movwf	140,c	;volatile
   597  0002A0  EFAF  F001         	goto	i2l850
   598  0002A4                     i2l828:
   599  0002A4  0E28               	movlw	40
   600  0002A6  5C04               	subwf	_x^0,w,c
   601  0002A8  0E03               	movlw	3
   602  0002AA  5805               	subwfb	(_x+1)^0,w,c
   603  0002AC  A0D8               	btfss	status,0,c
   604  0002AE  EF5B  F001         	goto	i2u24_41
   605  0002B2  EF5D  F001         	goto	i2u24_40
   606  0002B6                     i2u24_41:
   607  0002B6  EF6C  F001         	goto	i2l834
   608  0002BA                     i2u24_40:
   609  0002BA  0E6C               	movlw	108
   610  0002BC  5C04               	subwf	_x^0,w,c
   611  0002BE  0E03               	movlw	3
   612  0002C0  5805               	subwfb	(_x+1)^0,w,c
   613  0002C2  B0D8               	btfsc	status,0,c
   614  0002C4  EF66  F001         	goto	i2u25_41
   615  0002C8  EF68  F001         	goto	i2u25_40
   616  0002CC                     i2u25_41:
   617  0002CC  EF6C  F001         	goto	i2l834
   618  0002D0                     i2u25_40:
   619  0002D0  0E0C               	movlw	12
   620  0002D2  6E8C               	movwf	140,c	;volatile
   621  0002D4  EFAF  F001         	goto	i2l850
   622  0002D8                     i2l834:
   623  0002D8  0E6C               	movlw	108
   624  0002DA  5C04               	subwf	_x^0,w,c
   625  0002DC  0E03               	movlw	3
   626  0002DE  5805               	subwfb	(_x+1)^0,w,c
   627  0002E0  A0D8               	btfss	status,0,c
   628  0002E2  EF75  F001         	goto	i2u26_41
   629  0002E6  EF77  F001         	goto	i2u26_40
   630  0002EA                     i2u26_41:
   631  0002EA  EF86  F001         	goto	i2l840
   632  0002EE                     i2u26_40:
   633  0002EE  0EB0               	movlw	176
   634  0002F0  5C04               	subwf	_x^0,w,c
   635  0002F2  0E03               	movlw	3
   636  0002F4  5805               	subwfb	(_x+1)^0,w,c
   637  0002F6  B0D8               	btfsc	status,0,c
   638  0002F8  EF80  F001         	goto	i2u27_41
   639  0002FC  EF82  F001         	goto	i2u27_40
   640  000300                     i2u27_41:
   641  000300  EF86  F001         	goto	i2l840
   642  000304                     i2u27_40:
   643  000304  0E0D               	movlw	13
   644  000306  6E8C               	movwf	140,c	;volatile
   645  000308  EFAF  F001         	goto	i2l850
   646  00030C                     i2l840:
   647  00030C  0EB0               	movlw	176
   648  00030E  5C04               	subwf	_x^0,w,c
   649  000310  0E03               	movlw	3
   650  000312  5805               	subwfb	(_x+1)^0,w,c
   651  000314  A0D8               	btfss	status,0,c
   652  000316  EF8F  F001         	goto	i2u28_41
   653  00031A  EF91  F001         	goto	i2u28_40
   654  00031E                     i2u28_41:
   655  00031E  EFA0  F001         	goto	i2l846
   656  000322                     i2u28_40:
   657  000322  0EE8               	movlw	232
   658  000324  5C04               	subwf	_x^0,w,c
   659  000326  0E03               	movlw	3
   660  000328  5805               	subwfb	(_x+1)^0,w,c
   661  00032A  B0D8               	btfsc	status,0,c
   662  00032C  EF9A  F001         	goto	i2u29_41
   663  000330  EF9C  F001         	goto	i2u29_40
   664  000334                     i2u29_41:
   665  000334  EFA0  F001         	goto	i2l846
   666  000338                     i2u29_40:
   667  000338  0E0E               	movlw	14
   668  00033A  6E8C               	movwf	140,c	;volatile
   669  00033C  EFAF  F001         	goto	i2l850
   670  000340                     i2l846:
   671  000340  0EE8               	movlw	232
   672  000342  5C04               	subwf	_x^0,w,c
   673  000344  0E03               	movlw	3
   674  000346  5805               	subwfb	(_x+1)^0,w,c
   675  000348  A0D8               	btfss	status,0,c
   676  00034A  EFA9  F001         	goto	i2u30_41
   677  00034E  EFAB  F001         	goto	i2u30_40
   678  000352                     i2u30_41:
   679  000352  EFAF  F001         	goto	i2l62
   680  000356                     i2u30_40:
   681  000356  0E0F               	movlw	15
   682  000358  6E8C               	movwf	140,c	;volatile
   683  00035A  EFAF  F001         	goto	i2l850
   684  00035E                     i2l62:
   685  00035E                     i2l850:
   686  00035E  8EF2               	bsf	242,7,c	;volatile
   687  000360  9C9E               	bcf	158,6,c	;volatile
   688  000362  82C2               	bsf	194,1,c	;volatile
   689  000364  0E10               	movlw	16
   690  000366                     i2u31_47:
   691  000366  2EE8               	decfsz	wreg,f,c
   692  000368  D7FE               	bra	i2u31_47
   693  00036A  D000               	nop2	
   694  00036C  9206               	bcf	int$flags,1,c	;clear compiler interrupt flag (level 2)
   695  00036E  0011               	retfie		f
   696  000370                     __end_of_myIsr:
   697                           	callstack 0
   698  0000                     
   699                           	psect	rparam
   700  0000                     
   701                           	psect	temp
   702  000006                     btemp:
   703                           	callstack 0
   704  000006                     	ds	1
   705  0000                     int$flags	set	btemp
   706  0000                     wtemp8	set	btemp+1
   707  0000                     ttemp5	set	btemp+1
   708  0000                     ttemp6	set	btemp+4
   709  0000                     ttemp7	set	btemp+8
   710                           
   711                           	psect	idloc
   712                           
   713                           ;Config register IDLOC0 @ 0x200000
   714                           ;	unspecified, using default values
   715  200000                     	org	2097152
   716  200000  FF                 	db	255
   717                           
   718                           ;Config register IDLOC1 @ 0x200001
   719                           ;	unspecified, using default values
   720  200001                     	org	2097153
   721  200001  FF                 	db	255
   722                           
   723                           ;Config register IDLOC2 @ 0x200002
   724                           ;	unspecified, using default values
   725  200002                     	org	2097154
   726  200002  FF                 	db	255
   727                           
   728                           ;Config register IDLOC3 @ 0x200003
   729                           ;	unspecified, using default values
   730  200003                     	org	2097155
   731  200003  FF                 	db	255
   732                           
   733                           ;Config register IDLOC4 @ 0x200004
   734                           ;	unspecified, using default values
   735  200004                     	org	2097156
   736  200004  FF                 	db	255
   737                           
   738                           ;Config register IDLOC5 @ 0x200005
   739                           ;	unspecified, using default values
   740  200005                     	org	2097157
   741  200005  FF                 	db	255
   742                           
   743                           ;Config register IDLOC6 @ 0x200006
   744                           ;	unspecified, using default values
   745  200006                     	org	2097158
   746  200006  FF                 	db	255
   747                           
   748                           ;Config register IDLOC7 @ 0x200007
   749                           ;	unspecified, using default values
   750  200007                     	org	2097159
   751  200007  FF                 	db	255
   752                           
   753                           	psect	config
   754                           
   755                           ; Padding undefined space
   756  300000                     	org	3145728
   757  300000  FF                 	db	255
   758                           
   759                           ;Config register CONFIG1H @ 0x300001
   760                           ;	Oscillator Selection bits
   761                           ;	OSC = INTIO67, Internal oscillator block, port function on RA6 and RA7
   762                           ;	Fail-Safe Clock Monitor Enable bit
   763                           ;	FCMEN = 0x0, unprogrammed default
   764                           ;	Internal/External Oscillator Switchover bit
   765                           ;	IESO = 0x0, unprogrammed default
   766  300001                     	org	3145729
   767  300001  08                 	db	8
   768                           
   769                           ;Config register CONFIG2L @ 0x300002
   770                           ;	Power-up Timer Enable bit
   771                           ;	PWRT = OFF, PWRT disabled
   772                           ;	Brown-out Reset Enable bits
   773                           ;	BOREN = ON, Brown-out Reset enabled and controlled by software (SBOREN is enabled)
   774                           ;	Brown Out Reset Voltage bits
   775                           ;	BORV = 0x3, unprogrammed default
   776  300002                     	org	3145730
   777  300002  1B                 	db	27
   778                           
   779                           ;Config register CONFIG2H @ 0x300003
   780                           ;	Watchdog Timer Enable bit
   781                           ;	WDT = OFF, WDT disabled (control is placed on the SWDTEN bit)
   782                           ;	Watchdog Timer Postscale Select bits
   783                           ;	WDTPS = 0xF, unprogrammed default
   784  300003                     	org	3145731
   785  300003  1E                 	db	30
   786                           
   787                           ; Padding undefined space
   788  300004                     	org	3145732
   789  300004  FF                 	db	255
   790                           
   791                           ;Config register CONFIG3H @ 0x300005
   792                           ;	CCP2 MUX bit
   793                           ;	CCP2MX = 0x1, unprogrammed default
   794                           ;	PORTB A/D Enable bit
   795                           ;	PBADEN = OFF, PORTB<4:0> pins are configured as digital I/O on Reset
   796                           ;	Low-Power Timer1 Oscillator Enable bit
   797                           ;	LPT1OSC = 0x0, unprogrammed default
   798                           ;	MCLR Pin Enable bit
   799                           ;	MCLRE = 0x1, unprogrammed default
   800  300005                     	org	3145733
   801  300005  81                 	db	129
   802                           
   803                           ;Config register CONFIG4L @ 0x300006
   804                           ;	Stack Full/Underflow Reset Enable bit
   805                           ;	STVREN = 0x1, unprogrammed default
   806                           ;	Single-Supply ICSP Enable bit
   807                           ;	LVP = OFF, Single-Supply ICSP disabled
   808                           ;	Extended Instruction Set Enable bit
   809                           ;	XINST = 0x0, unprogrammed default
   810                           ;	Background Debugger Enable bit
   811                           ;	DEBUG = 0x1, unprogrammed default
   812  300006                     	org	3145734
   813  300006  81                 	db	129
   814                           
   815                           ; Padding undefined space
   816  300007                     	org	3145735
   817  300007  FF                 	db	255
   818                           
   819                           ;Config register CONFIG5L @ 0x300008
   820                           ;	unspecified, using default values
   821                           ;	Code Protection bit
   822                           ;	CP0 = 0x1, unprogrammed default
   823                           ;	Code Protection bit
   824                           ;	CP1 = 0x1, unprogrammed default
   825                           ;	Code Protection bit
   826                           ;	CP2 = 0x1, unprogrammed default
   827                           ;	Code Protection bit
   828                           ;	CP3 = 0x1, unprogrammed default
   829  300008                     	org	3145736
   830  300008  0F                 	db	15
   831                           
   832                           ;Config register CONFIG5H @ 0x300009
   833                           ;	Boot Block Code Protection bit
   834                           ;	CPB = 0x1, unprogrammed default
   835                           ;	Data EEPROM Code Protection bit
   836                           ;	CPD = OFF, Data EEPROM not code-protected
   837  300009                     	org	3145737
   838  300009  C0                 	db	192
   839                           
   840                           ;Config register CONFIG6L @ 0x30000A
   841                           ;	unspecified, using default values
   842                           ;	Write Protection bit
   843                           ;	WRT0 = 0x1, unprogrammed default
   844                           ;	Write Protection bit
   845                           ;	WRT1 = 0x1, unprogrammed default
   846                           ;	Write Protection bit
   847                           ;	WRT2 = 0x1, unprogrammed default
   848                           ;	Write Protection bit
   849                           ;	WRT3 = 0x1, unprogrammed default
   850  30000A                     	org	3145738
   851  30000A  0F                 	db	15
   852                           
   853                           ;Config register CONFIG6H @ 0x30000B
   854                           ;	unspecified, using default values
   855                           ;	Configuration Register Write Protection bit
   856                           ;	WRTC = 0x1, unprogrammed default
   857                           ;	Boot Block Write Protection bit
   858                           ;	WRTB = 0x1, unprogrammed default
   859                           ;	Data EEPROM Write Protection bit
   860                           ;	WRTD = 0x1, unprogrammed default
   861  30000B                     	org	3145739
   862  30000B  E0                 	db	224
   863                           
   864                           ;Config register CONFIG7L @ 0x30000C
   865                           ;	unspecified, using default values
   866                           ;	Table Read Protection bit
   867                           ;	EBTR0 = 0x1, unprogrammed default
   868                           ;	Table Read Protection bit
   869                           ;	EBTR1 = 0x1, unprogrammed default
   870                           ;	Table Read Protection bit
   871                           ;	EBTR2 = 0x1, unprogrammed default
   872                           ;	Table Read Protection bit
   873                           ;	EBTR3 = 0x1, unprogrammed default
   874  30000C                     	org	3145740
   875  30000C  0F                 	db	15
   876                           
   877                           ;Config register CONFIG7H @ 0x30000D
   878                           ;	unspecified, using default values
   879                           ;	Boot Block Table Read Protection bit
   880                           ;	EBTRB = 0x1, unprogrammed default
   881  30000D                     	org	3145741
   882  30000D  40                 	db	64
   883                           tosu	equ	0xFFF
   884                           tosh	equ	0xFFE
   885                           tosl	equ	0xFFD
   886                           stkptr	equ	0xFFC
   887                           pclatu	equ	0xFFB
   888                           pclath	equ	0xFFA
   889                           pcl	equ	0xFF9
   890                           tblptru	equ	0xFF8
   891                           tblptrh	equ	0xFF7
   892                           tblptrl	equ	0xFF6
   893                           tablat	equ	0xFF5
   894                           prodh	equ	0xFF4
   895                           prodl	equ	0xFF3
   896                           indf0	equ	0xFEF
   897                           postinc0	equ	0xFEE
   898                           postdec0	equ	0xFED
   899                           preinc0	equ	0xFEC
   900                           plusw0	equ	0xFEB
   901                           fsr0h	equ	0xFEA
   902                           fsr0l	equ	0xFE9
   903                           wreg	equ	0xFE8
   904                           indf1	equ	0xFE7
   905                           postinc1	equ	0xFE6
   906                           postdec1	equ	0xFE5
   907                           preinc1	equ	0xFE4
   908                           plusw1	equ	0xFE3
   909                           fsr1h	equ	0xFE2
   910                           fsr1l	equ	0xFE1
   911                           bsr	equ	0xFE0
   912                           indf2	equ	0xFDF
   913                           postinc2	equ	0xFDE
   914                           postdec2	equ	0xFDD
   915                           preinc2	equ	0xFDC
   916                           plusw2	equ	0xFDB
   917                           fsr2h	equ	0xFDA
   918                           fsr2l	equ	0xFD9
   919                           status	equ	0xFD8

Data Sizes:
    Strings     0
    Constant    0
    Data        0
    BSS         2
    Persistent  0
    Stack       0

Auto Spaces:
    Space          Size  Autos    Used
    COMRAM          126      3       5
    BANK0           128      0       0
    BANK1           256      0       0
    BANK2           256      0       0
    BANK3           256      0       0
    BANK4           256      0       0
    BANK5           244      0       0

Pointer List with Targets:

    None.

Critical Paths under _main in COMRAM

    None.

Critical Paths under _myIsr in COMRAM

    None.

Critical Paths under _main in BANK0

    None.

Critical Paths under _myIsr in BANK0

    None.

Critical Paths under _main in BANK1

    None.

Critical Paths under _myIsr in BANK1

    None.

Critical Paths under _main in BANK2

    None.

Critical Paths under _myIsr in BANK2

    None.

Critical Paths under _main in BANK3

    None.

Critical Paths under _myIsr in BANK3

    None.

Critical Paths under _main in BANK4

    None.

Critical Paths under _myIsr in BANK4

    None.

Critical Paths under _main in BANK5

    None.

Critical Paths under _myIsr in BANK5

    None.

Call Graph Tables:

 ---------------------------------------------------------------------------------
 (Depth) Function   	        Calls       Base Space   Used Autos Params    Refs
 ---------------------------------------------------------------------------------
 (0) _main                                                 0     0      0       0
 ---------------------------------------------------------------------------------
 Estimated maximum stack depth 0
 ---------------------------------------------------------------------------------
 (Depth) Function   	        Calls       Base Space   Used Autos Params    Refs
 ---------------------------------------------------------------------------------
 (1) _myIsr                                                3     3      0      30
                                              0 COMRAM     3     3      0
 ---------------------------------------------------------------------------------
 Estimated maximum stack depth 1
 ---------------------------------------------------------------------------------

 Call Graph Graphs:

 _main (ROOT)

 _myIsr (ROOT)

 Address spaces:
Name               Size   Autos  Total    Cost      Usage
BIGRAM             5F3      0       0      16        0.0%
EEDATA             100      0       0       0        0.0%
BITBANK4           100      0       0      11        0.0%
BANK4              100      0       0      12        0.0%
BITBANK3           100      0       0       9        0.0%
BANK3              100      0       0      10        0.0%
BITBANK2           100      0       0       7        0.0%
BANK2              100      0       0       8        0.0%
BITBANK1           100      0       0       5        0.0%
BANK1              100      0       0       6        0.0%
BITBANK5            F4      0       0      15        0.0%
BANK5               F4      0       0      13        0.0%
BITBANK0            80      0       0       3        0.0%
BANK0               80      0       0       4        0.0%
BITCOMRAM           7E      0       0       0        0.0%
COMRAM              7E      3       5       1        4.0%
BITSFR_5             0      0       0     200        0.0%
SFR_5                0      0       0     200        0.0%
BITSFR_4             0      0       0     200        0.0%
SFR_4                0      0       0     200        0.0%
BITSFR_3             0      0       0     200        0.0%
SFR_3                0      0       0     200        0.0%
BITSFR_2             0      0       0     200        0.0%
SFR_2                0      0       0     200        0.0%
BITSFR_1             0      0       0     200        0.0%
SFR_1                0      0       0     200        0.0%
BITSFR               0      0       0     200        0.0%
SFR                  0      0       0     200        0.0%
STACK                0      0       0       2        0.0%
NULL                 0      0       0       0        0.0%
ABS                  0      0       5      14        0.0%
DATA                 0      0       5      17        0.0%
CODE                 0      0       0       0        0.0%


Microchip Technology PIC18 Macro Assembler V2.30 build 20200825195618 
Symbol Table                                                                                   Thu Dec 10 10:32:21 2020

                      _x 0004                       l73 03B8                       l74 03B8  
                    l860 0378                      l870 0382                      l862 037A  
                    l880 03A8                      l872 0384                      l864 037C  
                    l890 03B2                      l882 03AA                      l874 0386  
                    l866 037E                      l858 0370                      l892 03B4  
                    l884 03AC                      l876 0388                      l868 0380  
                    l894 03B6                      l886 03AE                      l878 038A  
                    l888 03B0                      wreg 000FE8                     _LATD 000F8C  
                   i2l62 035E                     i2l68 036C                     _main 0370  
                   btemp 0006                     start 000E             ___param_bank 000000  
                  ?_main 0001                    i2l800 01B6                    i2l810 0208  
                  i2l802 01CC                    i2l820 0268                    i2l812 021E  
                  i2l804 01D4                    i2l830 02BA                    i2l822 0270  
                  i2l814 0234                    i2l806 01EA                    i2l840 030C  
                  i2l832 02D0                    i2l824 0286                    i2l816 023C  
                  i2l808 0200                    i2l760 0060                    i2l752 0014  
                  i2l842 0322                    i2l834 02D8                    i2l826 029C  
                  i2l818 0252                    i2l770 00B2                    i2l850 035E  
                  i2l762 0068                    i2l754 0016                    i2l852 0360  
                  i2l844 0338                    i2l836 02EE                    i2l828 02A4  
                  i2l780 0104                    i2l772 00C8                    i2l764 007E  
                  i2l756 0024                    i2l854 0362                    i2l846 0340  
                  i2l838 0304                    i2l790 0164                    i2l782 011A  
                  i2l774 00D0                    i2l766 0094                    i2l758 0030  
                  i2l856 0364                    i2l848 0356                    i2l792 016C  
                  i2l784 0130                    i2l776 00E6                    i2l768 009C  
                  i2l794 0182                    i2l786 0138                    i2l778 00FC  
                  i2l796 0198                    i2l788 014E                    i2l798 01A0  
                  _myIsr 0008                    ttemp5 0007                    ttemp6 000A  
                  ttemp7 000E                    status 000FD8                    wtemp8 0007  
        __initialization 03C0             __end_of_main 03C0                   ??_main 0004  
          __activetblptr 000000                   _ADRESH 000FC4                   ?_myIsr 0001  
                 _ADRESL 000FC3                   i2u1_40 0060                   i2u1_41 005C  
                 i2u2_40 007E                   i2u2_41 007A                   i2u3_40 0094  
                 i2u3_41 0090                   i2u4_40 00B2                   i2u4_41 00AE  
                 i2u5_40 00C8                   i2u5_41 00C4                   i2u6_40 00E6  
                 i2u6_41 00E2                   i2u7_40 00FC                   i2u7_41 00F8  
                 i2u8_40 011A                   i2u8_41 0116                   i2u9_40 0130  
                 i2u9_41 012C               __accesstop 0080  __end_of__initialization 03C4  
          ___rparam_used 000001           __pcstackCOMRAM 0001            __end_of_myIsr 0370  
                ??_myIsr 0001                  i2u10_40 014E                  i2u10_41 014A  
                i2u11_40 0164                  i2u11_41 0160                  i2u20_40 0252  
                i2u12_40 0182                  i2u20_41 024E                  i2u12_41 017E  
                i2u21_40 0268                  i2u13_40 0198                  i2u21_41 0264  
                i2u13_41 0194                  i2u30_40 0356                  i2u22_40 0286  
                i2u14_40 01B6                  i2u30_41 0352                  i2u22_41 0282  
                i2u14_41 01B2                  i2u23_40 029C                  i2u15_40 01CC  
                i2u23_41 0298                  i2u15_41 01C8                  i2u31_47 0366  
                i2u24_40 02BA                  i2u16_40 01EA                  i2u24_41 02B6  
                i2u16_41 01E6                  i2u25_40 02D0                  i2u17_40 0200  
                i2u25_41 02CC                  i2u17_41 01FC                  i2u26_40 02EE  
                i2u18_40 021E                  i2u26_41 02EA                  i2u18_41 021A  
                i2u27_40 0304                  i2u19_40 0234                  i2u27_41 0300  
                i2u19_41 0230                  i2u28_40 0322                  i2u28_41 031E  
                i2u29_40 0338                  i2u29_41 0334                  __Hparam 0000  
                __Lparam 0000                  __pcinit 03C0                  __ramtop 0600  
                __ptext0 0370           __pintcode_body 0012     end_of_initialization 03C4  
                int_func 0012                _TRISDbits 000F95      start_initialization 03C0  
            __pbssCOMRAM 0004               myIsr@temp1 0002                __pintcode 0008  
         __size_of_myIsr 0368                 _LATDbits 000F8C                 _IPR1bits 000F9F  
               _PIE1bits 000F9D                 _PIR1bits 000F9E                 _RCONbits 000FD0  
             _ADCON0bits 000FC2               _ADCON1bits 000FC1               _ADCON2bits 000FC0  
               __Hrparam 0000                 __Lrparam 0000            __size_of_main 0050  
               int$flags 0006               _INTCONbits 000FF2                 intlevel2 0000  
             _OSCCONbits 000FD3  
